target datalayout = "e-m:e-p270:32:32-p271:32:32-p272:64:64-i64:64-i128:128-f80:128-n8:16:32:64-S128"
target triple = "x86_64-pc-linux-gnu"

%struct.JNINativeInterface_ = type { ptr, ptr, ptr, ptr, ptr, ptr, ptr, ptr, ptr, ptr, ptr, ptr, ptr, ptr, ptr, ptr, ptr, ptr, ptr, ptr, ptr, ptr, ptr, ptr, ptr, ptr, ptr, ptr, ptr, ptr, ptr, ptr, ptr, ptr, ptr, ptr, ptr, ptr, ptr, ptr, ptr, ptr, ptr, ptr, ptr, ptr, ptr, ptr, ptr, ptr, ptr, ptr, ptr, ptr, ptr, ptr, ptr, ptr, ptr, ptr, ptr, ptr, ptr, ptr, ptr, ptr, ptr, ptr, ptr, ptr, ptr, ptr, ptr, ptr, ptr, ptr, ptr, ptr, ptr, ptr, ptr, ptr, ptr, ptr, ptr, ptr, ptr, ptr, ptr, ptr, ptr, ptr, ptr, ptr, ptr, ptr, ptr, ptr, ptr, ptr, ptr, ptr, ptr, ptr, ptr, ptr, ptr, ptr, ptr, ptr, ptr, ptr, ptr, ptr, ptr, ptr, ptr, ptr, ptr, ptr, ptr, ptr, ptr, ptr, ptr, ptr, ptr, ptr, ptr, ptr, ptr, ptr, ptr, ptr, ptr, ptr, ptr, ptr, ptr, ptr, ptr, ptr, ptr, ptr, ptr, ptr, ptr, ptr, ptr, ptr, ptr, ptr, ptr, ptr, ptr, ptr, ptr, ptr, ptr, ptr, ptr, ptr, ptr, ptr, ptr, ptr, ptr, ptr, ptr, ptr, ptr, ptr, ptr, ptr, ptr, ptr, ptr, ptr, ptr, ptr, ptr, ptr, ptr, ptr, ptr, ptr, ptr, ptr, ptr, ptr, ptr, ptr, ptr, ptr, ptr, ptr, ptr, ptr, ptr, ptr, ptr, ptr, ptr, ptr, ptr, ptr, ptr, ptr, ptr, ptr, ptr, ptr, ptr, ptr, ptr, ptr, ptr, ptr, ptr, ptr, ptr, ptr, ptr, ptr, ptr, ptr, ptr, ptr, ptr, ptr, ptr, ptr, ptr, ptr, ptr }
%struct.FTScalerInfo = type { ptr, ptr, ptr, ptr, ptr, ptr, ptr, i32, i32, i32 }

@invalidateScalerMID = internal global ptr null, align 8

; Function Attrs: nounwind uwtable
define internal void @freeNativeResources(ptr noundef %0, ptr noundef %1) #0 {
  %3 = alloca ptr, align 8
  %4 = alloca ptr, align 8
  store ptr %0, ptr %3, align 8
  store ptr %1, ptr %4, align 8
  %5 = load ptr, ptr %4, align 8
  %6 = icmp eq ptr %5, null
  br i1 %6, label %7, label %8

7:                                                ; preds = %2
  br label %50

8:                                                ; preds = %2
  %9 = load ptr, ptr %4, align 8
  %10 = getelementptr inbounds %struct.FTScalerInfo, ptr %9, i32 0, i32 2
  %11 = load ptr, ptr %10, align 8
  %12 = call i32 @FT_Done_Face(ptr noundef %11)
  %13 = load ptr, ptr %4, align 8
  %14 = getelementptr inbounds %struct.FTScalerInfo, ptr %13, i32 0, i32 1
  %15 = load ptr, ptr %14, align 8
  %16 = call i32 @FT_Done_FreeType(ptr noundef %15)
  %17 = load ptr, ptr %4, align 8
  %18 = getelementptr inbounds %struct.FTScalerInfo, ptr %17, i32 0, i32 5
  %19 = load ptr, ptr %18, align 8
  %20 = icmp ne ptr %19, null
  br i1 %20, label %21, label %30

21:                                               ; preds = %8
  %22 = load ptr, ptr %3, align 8
  %23 = load ptr, ptr %22, align 8
  %24 = getelementptr inbounds %struct.JNINativeInterface_, ptr %23, i32 0, i32 22
  %25 = load ptr, ptr %24, align 8
  %26 = load ptr, ptr %3, align 8
  %27 = load ptr, ptr %4, align 8
  %28 = getelementptr inbounds %struct.FTScalerInfo, ptr %27, i32 0, i32 5
  %29 = load ptr, ptr %28, align 8
  call void %25(ptr noundef %26, ptr noundef %29)
  br label %30

30:                                               ; preds = %21, %8
  %31 = load ptr, ptr %4, align 8
  %32 = getelementptr inbounds %struct.FTScalerInfo, ptr %31, i32 0, i32 6
  %33 = load ptr, ptr %32, align 8
  %34 = icmp ne ptr %33, null
  br i1 %34, label %35, label %39

35:                                               ; preds = %30
  %36 = load ptr, ptr %4, align 8
  %37 = getelementptr inbounds %struct.FTScalerInfo, ptr %36, i32 0, i32 6
  %38 = load ptr, ptr %37, align 8
  call void @free(ptr noundef %38) #11
  br label %39

39:                                               ; preds = %35, %30
  %40 = load ptr, ptr %4, align 8
  %41 = getelementptr inbounds %struct.FTScalerInfo, ptr %40, i32 0, i32 3
  %42 = load ptr, ptr %41, align 8
  %43 = icmp ne ptr %42, null
  br i1 %43, label %44, label %48

44:                                               ; preds = %39
  %45 = load ptr, ptr %4, align 8
  %46 = getelementptr inbounds %struct.FTScalerInfo, ptr %45, i32 0, i32 3
  %47 = load ptr, ptr %46, align 8
  call void @free(ptr noundef %47) #11
  br label %48

48:                                               ; preds = %44, %39
  %49 = load ptr, ptr %4, align 8
  call void @free(ptr noundef %49) #11
  br label %50

50:                                               ; preds = %48, %7
  ret void
}

; Function Attrs: nounwind uwtable
define internal void @invalidateJavaScaler(ptr noundef %0, ptr noundef %1, ptr noundef %2) #0 {
  %4 = alloca ptr, align 8
  %5 = alloca ptr, align 8
  %6 = alloca ptr, align 8
  store ptr %0, ptr %4, align 8
  store ptr %1, ptr %5, align 8
  store ptr %2, ptr %6, align 8
  %7 = load ptr, ptr %4, align 8
  %8 = load ptr, ptr %6, align 8
  call void @freeNativeResources(ptr noundef %7, ptr noundef %8)
  %9 = load ptr, ptr %4, align 8
  %10 = load ptr, ptr %9, align 8
  %11 = getelementptr inbounds %struct.JNINativeInterface_, ptr %10, i32 0, i32 61
  %12 = load ptr, ptr %11, align 8
  %13 = load ptr, ptr %4, align 8
  %14 = load ptr, ptr %5, align 8
  %15 = load ptr, ptr @invalidateScalerMID, align 8
  call void (ptr, ptr, ptr, ...) %12(ptr noundef %13, ptr noundef %14, ptr noundef %15)
  ret void
}