; Function Attrs: nounwind uwtable
define internal fastcc void @invalidateJavaScaler(ptr noundef %0, ptr noundef %1, ptr noundef %2) unnamed_addr #0 {
  %4 = icmp eq ptr %2, null
  br i1 %4, label %freeNativeResources.exit, label %5

5:                                                ; preds = %3
  %6 = getelementptr inbounds i8, ptr %2, i64 16
  %7 = load ptr, ptr %6, align 8
  %8 = tail call i32 @FT_Done_Face(ptr noundef %7) #19
  %9 = getelementptr inbounds i8, ptr %2, i64 8
  %10 = load ptr, ptr %9, align 8
  %11 = tail call i32 @FT_Done_FreeType(ptr noundef %10) #19
  %12 = getelementptr inbounds i8, ptr %2, i64 40
  %13 = load ptr, ptr %12, align 8
  %.not.i = icmp eq ptr %13, null
  br i1 %.not.i, label %18, label %14

14:                                               ; preds = %5
  %15 = load ptr, ptr %0, align 8
  %16 = getelementptr inbounds i8, ptr %15, i64 176
  %17 = load ptr, ptr %16, align 8
  tail call void %17(ptr noundef nonnull %0, ptr noundef nonnull %13) #19
  br label %18

18:                                               ; preds = %14, %5
  %19 = getelementptr inbounds i8, ptr %2, i64 48
  %20 = load ptr, ptr %19, align 8
  %.not15.i = icmp eq ptr %20, null
  br i1 %.not15.i, label %22, label %21

21:                                               ; preds = %18
  tail call void @free(ptr noundef nonnull %20) #19
  br label %22

22:                                               ; preds = %21, %18
  %23 = getelementptr inbounds i8, ptr %2, i64 24
  %24 = load ptr, ptr %23, align 8
  %.not16.i = icmp eq ptr %24, null
  br i1 %.not16.i, label %26, label %25

25:                                               ; preds = %22
  tail call void @free(ptr noundef nonnull %24) #19
  br label %26

26:                                               ; preds = %25, %22
  tail call void @free(ptr noundef nonnull %2) #19
  br label %freeNativeResources.exit

freeNativeResources.exit:                         ; preds = %3, %26
  %27 = load ptr, ptr %0, align 8
  %28 = getelementptr inbounds i8, ptr %27, i64 488
  %29 = load ptr, ptr %28, align 8
  %30 = load ptr, ptr @invalidateScalerMID, align 8
  tail call void (ptr, ptr, ptr, ...) %29(ptr noundef nonnull %0, ptr noundef %1, ptr noundef %30) #19
  ret void
}